target datalayout = "e-m:e-p270:32:32-p271:32:32-p272:64:64-i64:64-i128:128-f80:128-n8:16:32:64-S128"
target triple = "x86_64-pc-linux-gnu"

%class.OopHandle = type { ptr }
%class.ReservedSpace = type <{ ptr, i64, i64, i64, i64, i8, [3 x i8], i32, i8, [7 x i8] }>
%class.ShenandoahCollectionSet = type { i64, i64, %class.ReservedSpace, ptr, ptr, ptr, i64, i64, i64, [64 x i8], i64, [64 x i8] }
%class.ShenandoahHeap = type <{ %class.CollectedHeap, %class.ShenandoahSpaceInfo, %class.ShenandoahLock, i64, i64, i64, [64 x i8], i64, i64, i64, [64 x i8], i32, [4 x i8], ptr, ptr, %class.MemRegion, i8, [7 x i8], i64, ptr, %class.ShenandoahRegionIterator, i8, %struct.ShenandoahSharedBitmap, %struct.ShenandoahSharedFlag, %struct.ShenandoahSharedFlag, %struct.ShenandoahSharedFlag, %struct.ShenandoahSharedFlag, %struct.ShenandoahSharedFlag, i8, i64, %struct.ShenandoahSharedEnumFlag, [7 x i8], ptr, ptr, ptr, ptr, ptr, ptr, ptr, ptr, ptr, ptr, %class.GCMemoryManager, %class.GCMemoryManager, ptr, i32, [4 x i8], ptr, %struct.ShenandoahSharedFlag, %class.ShenandoahUnload, [6 x i8], ptr, %class.MemRegion, %class.MemRegion, %class.MarkBitMap, %class.MarkBitMap, i64, i64, i64, i64, i64, i8, i8, [6 x i8], ptr, ptr, %class.ShenandoahEvacOOMHandler, %struct.ShenandoahSharedFlag, [7 x i8] }>
%class.CollectedHeap = type { ptr, ptr, i64, i64, %class.SoftRefPolicy, %class.MemRegion, i8, i64, i32, i32, i32, i32, ptr, ptr }
%class.SoftRefPolicy = type { i8, i8 }
%class.ShenandoahSpaceInfo = type { ptr }
%class.ShenandoahLock = type { [64 x i8], i32, [64 x i8], ptr, [64 x i8] }
%class.ShenandoahRegionIterator = type { ptr, [64 x i8], i64, [64 x i8] }
%struct.ShenandoahSharedBitmap = type { [64 x i8], i8, [64 x i8] }
%struct.ShenandoahSharedEnumFlag = type { [64 x i8], i8, [64 x i8] }
%class.GCMemoryManager = type <{ %class.MemoryManager.base, [7 x i8], i64, %class.elapsedTimer, ptr, ptr, ptr, i32, i8, [10 x i8], i8 }>
%class.MemoryManager.base = type <{ ptr, [10 x ptr], i32, [4 x i8], ptr, %class.OopHandle, i8 }>
%class.elapsedTimer = type <{ i64, i64, i8, [7 x i8] }>
%class.ShenandoahUnload = type { i8 }
%class.MemRegion = type { ptr, i64 }
%class.MarkBitMap = type { ptr, %class.MemRegion, i32, %class.BitMapView }
%class.BitMapView = type { %class.BitMap }
%class.BitMap = type { ptr, i64 }
%class.ShenandoahEvacOOMHandler = type { i32, [64 x i8], ptr }
%struct.ShenandoahSharedFlag = type { [64 x i8], i8, [64 x i8] }
%class.ThreadCritical = type { i8 }

@.str = private unnamed_addr constant [45 x i8] c"Unable to commit collection set bitmap: heap\00", align 1
@.str.4 = private unnamed_addr constant [50 x i8] c"Unable to commit collection set bitmap: zero page\00", align 1
@_ZN20ShenandoahHeapRegion20RegionSizeBytesShiftE = external global i64, align 8
@_ZN10MemTracker15_tracking_levelE = external global i32, align 4
@_ZN6OSInfo13_vm_page_sizeE = external global i64, align 8

; Function Attrs: mustprogress nounwind uwtable
define linkonce_odr hidden noundef i64 @_Z12checked_castImmET_T0_(i64 noundef %0) #1 comdat {
  %2 = alloca i64, align 8
  %3 = alloca i64, align 8
  store i64 %0, ptr %2, align 8
  %4 = load i64, ptr %2, align 8
  store i64 %4, ptr %3, align 8
  %5 = load i64, ptr %3, align 8
  ret i64 %5
}

; Function Attrs: mustprogress nounwind uwtable
define internal noundef i64 @_ZL14alignment_maskImTnNSt9enable_ifIXcvbsr3std11is_integralIT_EE5valueEiE4typeELi0EES1_S1_(i64 noundef %0) #1 {
  %2 = alloca i64, align 8
  store i64 %0, ptr %2, align 8
  %3 = load i64, ptr %2, align 8
  %4 = sub i64 %3, 1
  ret i64 %4
}

; Function Attrs: mustprogress nounwind uwtable
define linkonce_odr hidden void @_ZN4Copy16pd_zero_to_bytesEPvm(ptr noundef %0, i64 noundef %1) #1 comdat align 2 {
  %3 = alloca ptr, align 8
  %4 = alloca i64, align 8
  store ptr %0, ptr %3, align 8
  store i64 %1, ptr %4, align 8
  %5 = load ptr, ptr %3, align 8
  %6 = load i64, ptr %4, align 8
  call void @llvm.memset.p0.i64(ptr align 1 %5, i8 0, i64 %6, i1 false)
  ret void
}

; Function Attrs: mustprogress nounwind uwtable
define linkonce_odr hidden noundef i64 @_Z8align_upImmTnNSt9enable_ifIXcvbsr3std11is_integralIT_EE5valueEiE4typeELi0EES1_S1_T0_(i64 noundef %0, i64 noundef %1) #1 comdat {
  %3 = alloca i64, align 8
  %4 = alloca i64, align 8
  %5 = alloca i64, align 8
  store i64 %0, ptr %3, align 8
  store i64 %1, ptr %4, align 8
  %6 = load i64, ptr %3, align 8
  %7 = load i64, ptr %4, align 8
  %8 = call noundef i64 @_ZL14alignment_maskImTnNSt9enable_ifIXcvbsr3std11is_integralIT_EE5valueEiE4typeELi0EES1_S1_(i64 noundef %7)
  %9 = add i64 %6, %8
  %10 = call noundef i64 @_Z12checked_castImmET_T0_(i64 noundef %9)
  store i64 %10, ptr %5, align 8
  %11 = load i64, ptr %5, align 8
  %12 = load i64, ptr %4, align 8
  %13 = call noundef i64 @_Z10align_downImmTnNSt9enable_ifIXcvbsr3std11is_integralIT_EE5valueEiE4typeELi0EES1_S1_T0_(i64 noundef %11, i64 noundef %12)
  ret i64 %13
}

; Function Attrs: mustprogress nounwind uwtable
define linkonce_odr hidden noundef i64 @_Z10align_downImmTnNSt9enable_ifIXcvbsr3std11is_integralIT_EE5valueEiE4typeELi0EES1_S1_T0_(i64 noundef %0, i64 noundef %1) #1 comdat {
  %3 = alloca i64, align 8
  %4 = alloca i64, align 8
  %5 = alloca i64, align 8
  store i64 %0, ptr %3, align 8
  store i64 %1, ptr %4, align 8
  %6 = load i64, ptr %3, align 8
  %7 = load i64, ptr %4, align 8
  %8 = call noundef i64 @_ZL14alignment_maskImTnNSt9enable_ifIXcvbsr3std11is_integralIT_EE5valueEiE4typeELi0EES1_S1_(i64 noundef %7)
  %9 = xor i64 %8, -1
  %10 = and i64 %6, %9
  store i64 %10, ptr %5, align 8
  %11 = load i64, ptr %5, align 8
  ret i64 %11
}

; Function Attrs: mustprogress nounwind uwtable
define linkonce_odr hidden noundef i64 @_ZN6OSInfo12vm_page_sizeEv() #1 comdat align 2 {
  %1 = load i64, ptr @_ZN6OSInfo13_vm_page_sizeE, align 8
  ret i64 %1
}

; Function Attrs: mustprogress nounwind uwtable
define linkonce_odr hidden noundef zeroext i1 @_ZN10MemTracker7enabledEv() #1 comdat align 2 {
  %1 = load i32, ptr @_ZN10MemTracker15_tracking_levelE, align 4
  %2 = icmp sgt i32 %1, 1
  ret i1 %2
}

; Function Attrs: mustprogress nounwind uwtable
define linkonce_odr hidden void @_ZN10MemTracker16assert_post_initEv() #1 comdat align 2 {
  ret void
}

; Function Attrs: mustprogress nounwind uwtable
define linkonce_odr hidden void @_ZN4Copy13zero_to_bytesEPvm(ptr noundef %0, i64 noundef %1) #1 comdat align 2 {
  %3 = alloca ptr, align 8
  %4 = alloca i64, align 8
  store ptr %0, ptr %3, align 8
  store i64 %1, ptr %4, align 8
  %5 = load ptr, ptr %3, align 8
  %6 = load i64, ptr %4, align 8
  call void @_ZN4Copy16pd_zero_to_bytesEPvm(ptr noundef %5, i64 noundef %6)
  ret void
}

; Function Attrs: mustprogress nounwind uwtable
define linkonce_odr hidden noundef i64 @_Z13pointer_deltaPVKvS0_m(ptr noundef %0, ptr noundef %1, i64 noundef %2) #1 comdat {
  %4 = alloca ptr, align 8
  %5 = alloca ptr, align 8
  %6 = alloca i64, align 8
  store ptr %0, ptr %4, align 8
  store ptr %1, ptr %5, align 8
  store i64 %2, ptr %6, align 8
  %7 = load ptr, ptr %4, align 8
  %8 = ptrtoint ptr %7 to i64
  %9 = load ptr, ptr %5, align 8
  %10 = ptrtoint ptr %9 to i64
  %11 = sub i64 %8, %10
  %12 = load i64, ptr %6, align 8
  %13 = udiv i64 %11, %12
  ret i64 %13
}

; Function Attrs: mustprogress nounwind uwtable
define linkonce_odr hidden noundef ptr @_Z8align_upIcmEPT_S1_T0_(ptr noundef %0, i64 noundef %1) #1 comdat {
  %3 = alloca ptr, align 8
  %4 = alloca i64, align 8
  store ptr %0, ptr %3, align 8
  store i64 %1, ptr %4, align 8
  %5 = load ptr, ptr %3, align 8
  %6 = ptrtoint ptr %5 to i64
  %7 = load i64, ptr %4, align 8
  %8 = call noundef i64 @_Z8align_upImmTnNSt9enable_ifIXcvbsr3std11is_integralIT_EE5valueEiE4typeELi0EES1_S1_T0_(i64 noundef %6, i64 noundef %7)
  %9 = inttoptr i64 %8 to ptr
  ret ptr %9
}

; Function Attrs: mustprogress nounwind uwtable
define linkonce_odr hidden noundef ptr @_Z10align_downIcmEPT_S1_T0_(ptr noundef %0, i64 noundef %1) #1 comdat {
  %3 = alloca ptr, align 8
  %4 = alloca i64, align 8
  store ptr %0, ptr %3, align 8
  store i64 %1, ptr %4, align 8
  %5 = load ptr, ptr %3, align 8
  %6 = ptrtoint ptr %5 to i64
  %7 = load i64, ptr %4, align 8
  %8 = call noundef i64 @_Z10align_downImmTnNSt9enable_ifIXcvbsr3std11is_integralIT_EE5valueEiE4typeELi0EES1_S1_T0_(i64 noundef %6, i64 noundef %7)
  %9 = inttoptr i64 %8 to ptr
  ret ptr %9
}

; Function Attrs: mustprogress nounwind uwtable
define linkonce_odr hidden noundef zeroext i1 @_ZNK13ReservedSpace7specialEv(ptr noundef nonnull align 8 dereferenceable(49) %0) #1 comdat align 2 {
  %2 = alloca ptr, align 8
  store ptr %0, ptr %2, align 8
  %3 = load ptr, ptr %2, align 8
  %4 = getelementptr inbounds %class.ReservedSpace, ptr %3, i32 0, i32 5
  %5 = load i8, ptr %4, align 8
  %6 = trunc i8 %5 to i1
  ret i1 %6
}

; Function Attrs: mustprogress nounwind uwtable
define linkonce_odr hidden noundef i64 @_ZN2os12vm_page_sizeEv() #1 comdat align 2 {
  %1 = call noundef i64 @_ZN6OSInfo12vm_page_sizeEv()
  ret i64 %1
}

; Function Attrs: mustprogress nounwind uwtable
define linkonce_odr hidden void @_ZN10MemTracker26record_virtual_memory_typeEPv8MEMFLAGS(ptr noundef %0, i8 noundef zeroext %1) #1 comdat align 2 {
  %3 = alloca ptr, align 8
  %4 = alloca i8, align 1
  %5 = alloca %class.ThreadCritical, align 1
  store ptr %0, ptr %3, align 8
  store i8 %1, ptr %4, align 1
  call void @_ZN10MemTracker16assert_post_initEv()
  %6 = call noundef zeroext i1 @_ZN10MemTracker7enabledEv()
  br i1 %6, label %8, label %7

7:                                                ; preds = %2
  br label %14

8:                                                ; preds = %2
  %9 = load ptr, ptr %3, align 8
  %10 = icmp ne ptr %9, null
  br i1 %10, label %11, label %14

11:                                               ; preds = %8
  call void @_ZN14ThreadCriticalC1Ev(ptr noundef nonnull align 1 dereferenceable(1) %5)
  %12 = load ptr, ptr %3, align 8
  %13 = load i8, ptr %4, align 1
  call void @_ZN20VirtualMemoryTracker24set_reserved_region_typeEPh8MEMFLAGS(ptr noundef %12, i8 noundef zeroext %13)
  call void @_ZN14ThreadCriticalD1Ev(ptr noundef nonnull align 1 dereferenceable(1) %5) #6
  br label %14

14:                                               ; preds = %11, %8, %7
  ret void
}

; Function Attrs: mustprogress nounwind uwtable
define linkonce_odr hidden noundef ptr @_ZNK13ReservedSpace4baseEv(ptr noundef nonnull align 8 dereferenceable(49) %0) #1 comdat align 2 {
  %2 = alloca ptr, align 8
  store ptr %0, ptr %2, align 8
  %3 = load ptr, ptr %2, align 8
  %4 = getelementptr inbounds %class.ReservedSpace, ptr %3, i32 0, i32 0
  %5 = load ptr, ptr %4, align 8
  ret ptr %5
}

; Function Attrs: mustprogress nounwind uwtable
define linkonce_odr hidden noundef i64 @_ZN20ShenandoahHeapRegion23region_size_bytes_shiftEv() #1 comdat align 2 {
  %1 = load i64, ptr @_ZN20ShenandoahHeapRegion20RegionSizeBytesShiftE, align 8
  ret i64 %1
}

; Function Attrs: mustprogress nounwind uwtable
define linkonce_odr hidden noundef i64 @_ZNK14ShenandoahHeap11num_regionsEv(ptr noundef nonnull align 8 dereferenceable(2657) %0) #1 comdat align 2 {
  %2 = alloca ptr, align 8
  store ptr %0, ptr %2, align 8
  %3 = load ptr, ptr %2, align 8
  %4 = getelementptr inbounds %class.ShenandoahHeap, ptr %3, i32 0, i32 18
  %5 = load i64, ptr %4, align 8
  ret i64 %5
}

; Function Attrs: mustprogress nounwind uwtable
define hidden void @_ZN23ShenandoahCollectionSetC2EP14ShenandoahHeap13ReservedSpacePc(ptr noundef nonnull align 8 dereferenceable(256) %0, ptr noundef %1, ptr noundef byval(%class.ReservedSpace) align 8 %2, ptr noundef %3) unnamed_addr #1 align 2 {
  %5 = alloca ptr, align 8
  %6 = alloca ptr, align 8
  %7 = alloca ptr, align 8
  %8 = alloca i64, align 8
  %9 = alloca ptr, align 8
  %10 = alloca ptr, align 8
  store ptr %0, ptr %5, align 8
  store ptr %1, ptr %6, align 8
  store ptr %3, ptr %7, align 8
  %11 = load ptr, ptr %5, align 8
  %12 = getelementptr inbounds %class.ShenandoahCollectionSet, ptr %11, i32 0, i32 0
  %13 = load ptr, ptr %6, align 8
  %14 = call noundef i64 @_ZNK14ShenandoahHeap11num_regionsEv(ptr noundef nonnull align 8 dereferenceable(2657) %13)
  store i64 %14, ptr %12, align 8
  %15 = getelementptr inbounds %class.ShenandoahCollectionSet, ptr %11, i32 0, i32 1
  %16 = call noundef i64 @_ZN20ShenandoahHeapRegion23region_size_bytes_shiftEv()
  store i64 %16, ptr %15, align 8
  %17 = getelementptr inbounds %class.ShenandoahCollectionSet, ptr %11, i32 0, i32 2
  call void @llvm.memcpy.p0.p0.i64(ptr align 8 %17, ptr align 8 %2, i64 56, i1 false)
  %18 = getelementptr inbounds %class.ShenandoahCollectionSet, ptr %11, i32 0, i32 3
  %19 = getelementptr inbounds %class.ShenandoahCollectionSet, ptr %11, i32 0, i32 2
  %20 = call noundef ptr @_ZNK13ReservedSpace4baseEv(ptr noundef nonnull align 8 dereferenceable(49) %19)
  %21 = load ptr, ptr %7, align 8
  %22 = ptrtoint ptr %21 to i64
  %23 = getelementptr inbounds %class.ShenandoahCollectionSet, ptr %11, i32 0, i32 1
  %24 = load i64, ptr %23, align 8
  %25 = lshr i64 %22, %24
  %26 = getelementptr inbounds i8, ptr %20, i64 %25
  store ptr %26, ptr %18, align 8
  %27 = getelementptr inbounds %class.ShenandoahCollectionSet, ptr %11, i32 0, i32 4
  %28 = getelementptr inbounds %class.ShenandoahCollectionSet, ptr %11, i32 0, i32 2
  %29 = call noundef ptr @_ZNK13ReservedSpace4baseEv(ptr noundef nonnull align 8 dereferenceable(49) %28)
  store ptr %29, ptr %27, align 8
  %30 = getelementptr inbounds %class.ShenandoahCollectionSet, ptr %11, i32 0, i32 5
  %31 = load ptr, ptr %6, align 8
  store ptr %31, ptr %30, align 8
  %32 = getelementptr inbounds %class.ShenandoahCollectionSet, ptr %11, i32 0, i32 6
  store i64 0, ptr %32, align 8
  %33 = getelementptr inbounds %class.ShenandoahCollectionSet, ptr %11, i32 0, i32 7
  store i64 0, ptr %33, align 8
  %34 = getelementptr inbounds %class.ShenandoahCollectionSet, ptr %11, i32 0, i32 8
  store i64 0, ptr %34, align 8
  %35 = getelementptr inbounds %class.ShenandoahCollectionSet, ptr %11, i32 0, i32 10
  store volatile i64 0, ptr %35, align 8
  %36 = getelementptr inbounds %class.ShenandoahCollectionSet, ptr %11, i32 0, i32 2
  %37 = call noundef ptr @_ZNK13ReservedSpace4baseEv(ptr noundef nonnull align 8 dereferenceable(49) %36)
  call void @_ZN10MemTracker26record_virtual_memory_typeEPv8MEMFLAGS(ptr noundef %37, i8 noundef zeroext 5)
  %38 = call noundef i64 @_ZN2os12vm_page_sizeEv()
  store i64 %38, ptr %8, align 8
  %39 = getelementptr inbounds %class.ShenandoahCollectionSet, ptr %11, i32 0, i32 2
  %40 = call noundef zeroext i1 @_ZNK13ReservedSpace7specialEv(ptr noundef nonnull align 8 dereferenceable(49) %39)
  br i1 %40, label %66, label %41

41:                                               ; preds = %4
  %42 = getelementptr inbounds %class.ShenandoahCollectionSet, ptr %11, i32 0, i32 3
  %43 = load ptr, ptr %42, align 8
  %44 = load i64, ptr %8, align 8
  %45 = call noundef ptr @_Z10align_downIcmEPT_S1_T0_(ptr noundef %43, i64 noundef %44)
  store ptr %45, ptr %9, align 8
  %46 = getelementptr inbounds %class.ShenandoahCollectionSet, ptr %11, i32 0, i32 3
  %47 = load ptr, ptr %46, align 8
  %48 = getelementptr inbounds %class.ShenandoahCollectionSet, ptr %11, i32 0, i32 0
  %49 = load i64, ptr %48, align 8
  %50 = getelementptr inbounds i8, ptr %47, i64 %49
  %51 = load i64, ptr %8, align 8
  %52 = call noundef ptr @_Z8align_upIcmEPT_S1_T0_(ptr noundef %50, i64 noundef %51)
  store ptr %52, ptr %10, align 8
  %53 = load ptr, ptr %9, align 8
  %54 = load ptr, ptr %10, align 8
  %55 = load ptr, ptr %9, align 8
  %56 = call noundef i64 @_Z13pointer_deltaPVKvS0_m(ptr noundef %54, ptr noundef %55, i64 noundef 1)
  call void @_ZN2os21commit_memory_or_exitEPcmbPKc(ptr noundef %53, i64 noundef %56, i1 noundef zeroext false, ptr noundef @.str)
  %57 = load ptr, ptr %9, align 8
  %58 = getelementptr inbounds %class.ShenandoahCollectionSet, ptr %11, i32 0, i32 4
  %59 = load ptr, ptr %58, align 8
  %60 = icmp ne ptr %57, %59
  br i1 %60, label %61, label %65

61:                                               ; preds = %41
  %62 = getelementptr inbounds %class.ShenandoahCollectionSet, ptr %11, i32 0, i32 4
  %63 = load ptr, ptr %62, align 8
  %64 = load i64, ptr %8, align 8
  call void @_ZN2os21commit_memory_or_exitEPcmbPKc(ptr noundef %63, i64 noundef %64, i1 noundef zeroext false, ptr noundef @.str.4)
  br label %65

65:                                               ; preds = %61, %41
  br label %66

66:                                               ; preds = %65, %4
  %67 = getelementptr inbounds %class.ShenandoahCollectionSet, ptr %11, i32 0, i32 3
  %68 = load ptr, ptr %67, align 8
  %69 = getelementptr inbounds %class.ShenandoahCollectionSet, ptr %11, i32 0, i32 0
  %70 = load i64, ptr %69, align 8
  call void @_ZN4Copy13zero_to_bytesEPvm(ptr noundef %68, i64 noundef %70)
  %71 = getelementptr inbounds %class.ShenandoahCollectionSet, ptr %11, i32 0, i32 4
  %72 = load ptr, ptr %71, align 8
  %73 = load i64, ptr %8, align 8
  call void @_ZN4Copy13zero_to_bytesEPvm(ptr noundef %72, i64 noundef %73)
  ret void
}