; Function Attrs: mustprogress nounwind uwtable
define hidden void @_ZN23ShenandoahCollectionSetC2EP14ShenandoahHeap13ReservedSpacePc(ptr noundef nonnull align 8 dereferenceable(256) %0, ptr noundef %1, ptr nocapture noundef readonly byval(%class.ReservedSpace) align 8 %2, ptr noundef %3) unnamed_addr #1 align 2 {
  %5 = alloca %class.ThreadCritical, align 1
  %6 = getelementptr inbounds i8, ptr %1, i64 544
  %7 = load i64, ptr %6, align 8
  store i64 %7, ptr %0, align 8
  %8 = getelementptr inbounds i8, ptr %0, i64 8
  %9 = load i64, ptr @_ZN20ShenandoahHeapRegion20RegionSizeBytesShiftE, align 8
  store i64 %9, ptr %8, align 8
  %10 = getelementptr inbounds i8, ptr %0, i64 16
  call void @llvm.memcpy.p0.p0.i64(ptr noundef nonnull align 8 dereferenceable(56) %10, ptr noundef nonnull align 8 dereferenceable(56) %2, i64 56, i1 false)
  %11 = getelementptr inbounds i8, ptr %0, i64 72
  %12 = load ptr, ptr %10, align 8
  %13 = ptrtoint ptr %3 to i64
  %14 = lshr i64 %13, %9
  %15 = getelementptr inbounds i8, ptr %12, i64 %14
  store ptr %15, ptr %11, align 8
  %16 = getelementptr inbounds i8, ptr %0, i64 80
  store ptr %12, ptr %16, align 8
  %17 = getelementptr inbounds i8, ptr %0, i64 88
  store ptr %1, ptr %17, align 8
  %18 = getelementptr inbounds i8, ptr %0, i64 96
  %19 = getelementptr inbounds i8, ptr %0, i64 184
  tail call void @llvm.memset.p0.i64(ptr noundef nonnull align 8 dereferenceable(24) %18, i8 0, i64 24, i1 false)
  store volatile i64 0, ptr %19, align 8
  call void @llvm.lifetime.start.p0(i64 1, ptr nonnull %5)
  %20 = load i32, ptr @_ZN10MemTracker15_tracking_levelE, align 4
  %21 = icmp sgt i32 %20, 1
  %22 = icmp ne ptr %12, null
  %or.cond.i = and i1 %22, %21
  br i1 %or.cond.i, label %23, label %_ZN10MemTracker26record_virtual_memory_typeEPv8MEMFLAGS.exit

23:                                               ; preds = %4
  call void @_ZN14ThreadCriticalC1Ev(ptr noundef nonnull align 1 dereferenceable(1) %5) #9
  call void @_ZN20VirtualMemoryTracker24set_reserved_region_typeEPh8MEMFLAGS(ptr noundef nonnull %12, i8 noundef zeroext 5) #9
  call void @_ZN14ThreadCriticalD1Ev(ptr noundef nonnull align 1 dereferenceable(1) %5) #9
  br label %_ZN10MemTracker26record_virtual_memory_typeEPv8MEMFLAGS.exit

_ZN10MemTracker26record_virtual_memory_typeEPv8MEMFLAGS.exit: ; preds = %4, %23
  call void @llvm.lifetime.end.p0(i64 1, ptr nonnull %5)
  %24 = load i64, ptr @_ZN6OSInfo13_vm_page_sizeE, align 8
  %25 = getelementptr inbounds i8, ptr %0, i64 56
  %26 = load i8, ptr %25, align 8
  %27 = trunc i8 %26 to i1
  br i1 %27, label %43, label %28

28:                                               ; preds = %_ZN10MemTracker26record_virtual_memory_typeEPv8MEMFLAGS.exit
  %29 = load ptr, ptr %11, align 8
  %30 = ptrtoint ptr %29 to i64
  %31 = sub i64 0, %24
  %32 = and i64 %30, %31
  %33 = inttoptr i64 %32 to ptr
  %34 = load i64, ptr %0, align 8
  %35 = getelementptr inbounds i8, ptr %29, i64 %34
  %36 = ptrtoint ptr %35 to i64
  %37 = add i64 %24, -1
  %38 = add i64 %37, %36
  %39 = and i64 %38, %31
  %40 = sub i64 %39, %32
  call void @_ZN2os21commit_memory_or_exitEPcmbPKc(ptr noundef %33, i64 noundef %40, i1 noundef zeroext false, ptr noundef nonnull @.str) #9
  %41 = load ptr, ptr %16, align 8
  %.not = icmp eq ptr %41, %33
  br i1 %.not, label %43, label %42

42:                                               ; preds = %28
  call void @_ZN2os21commit_memory_or_exitEPcmbPKc(ptr noundef %41, i64 noundef %24, i1 noundef zeroext false, ptr noundef nonnull @.str.4) #9
  br label %43

43:                                               ; preds = %28, %42, %_ZN10MemTracker26record_virtual_memory_typeEPv8MEMFLAGS.exit
  %44 = load ptr, ptr %11, align 8
  %45 = load i64, ptr %0, align 8
  call void @llvm.memset.p0.i64(ptr align 1 %44, i8 0, i64 %45, i1 false)
  %46 = load ptr, ptr %16, align 8
  call void @llvm.memset.p0.i64(ptr align 1 %46, i8 0, i64 %24, i1 false)
  ret void
}